target datalayout = "e-m:e-p270:32:32-p271:32:32-p272:64:64-i64:64-i128:128-f80:128-n8:16:32:64-S128"
target triple = "x86_64-pc-linux-gnu"

%struct.LodePNGColorMode = type { i32, i32, ptr, i64, i32, i32, i32, i32 }

; Function Attrs: mustprogress nounwind uwtable
define noundef i32 @_Z25lodepng_has_palette_alphaPK16LodePNGColorMode(ptr noundef %0) #3 {
  %2 = alloca i32, align 4
  %3 = alloca ptr, align 8
  %4 = alloca i64, align 8
  %5 = alloca i32, align 4
  store ptr %0, ptr %3, align 8, !tbaa !100
  call void @llvm.lifetime.start.p0(i64 8, ptr %4) #17
  store i64 0, ptr %4, align 8, !tbaa !17
  br label %6

6:                                                ; preds = %25, %1
  %7 = load i64, ptr %4, align 8, !tbaa !17
  %8 = load ptr, ptr %3, align 8, !tbaa !100
  %9 = getelementptr inbounds nuw %struct.LodePNGColorMode, ptr %8, i32 0, i32 3
  %10 = load i64, ptr %9, align 8, !tbaa !111
  %11 = icmp ne i64 %7, %10
  br i1 %11, label %12, label %28

12:                                               ; preds = %6
  %13 = load ptr, ptr %3, align 8, !tbaa !100
  %14 = getelementptr inbounds nuw %struct.LodePNGColorMode, ptr %13, i32 0, i32 2
  %15 = load ptr, ptr %14, align 8, !tbaa !110
  %16 = load i64, ptr %4, align 8, !tbaa !17
  %17 = mul i64 %16, 4
  %18 = add i64 %17, 3
  %19 = getelementptr inbounds nuw i8, ptr %15, i64 %18
  %20 = load i8, ptr %19, align 1, !tbaa !45
  %21 = zext i8 %20 to i32
  %22 = icmp slt i32 %21, 255
  br i1 %22, label %23, label %24

23:                                               ; preds = %12
  store i32 1, ptr %2, align 4
  store i32 1, ptr %5, align 4
  br label %29

24:                                               ; preds = %12
  br label %25

25:                                               ; preds = %24
  %26 = load i64, ptr %4, align 8, !tbaa !17
  %27 = add i64 %26, 1
  store i64 %27, ptr %4, align 8, !tbaa !17
  br label %6, !llvm.loop !115

28:                                               ; preds = %6
  store i32 0, ptr %2, align 4
  store i32 1, ptr %5, align 4
  br label %29

29:                                               ; preds = %28, %23
  call void @llvm.lifetime.end.p0(i64 8, ptr %4) #17
  %30 = load i32, ptr %2, align 4
  ret i32 %30
}