; Function Attrs: mustprogress nofree norecurse nosync nounwind willreturn memory(read, inaccessiblemem: none) uwtable
define noundef range(i32 0, 2) i32 @_Z25lodepng_has_palette_alphaPK16LodePNGColorMode(ptr noundef readonly captures(none) %0) local_unnamed_addr #10 {
  %2 = getelementptr inbounds nuw i8, ptr %0, i64 16
  %3 = load i64, ptr %2, align 8, !tbaa !192
  %.not7 = icmp eq i64 %3, 0
  br i1 %.not7, label %._crit_edge, label %.lr.ph

.lr.ph:                                           ; preds = %1
  %4 = getelementptr inbounds nuw i8, ptr %0, i64 8
  %5 = load ptr, ptr %4, align 8, !tbaa !187
  br label %8

6:                                                ; preds = %8
  %7 = add nuw i64 %.08, 1
  %.not = icmp eq i64 %7, %3
  br i1 %.not, label %._crit_edge, label %8, !llvm.loop !198

8:                                                ; preds = %.lr.ph, %6
  %.08 = phi i64 [ 0, %.lr.ph ], [ %7, %6 ]
  %9 = shl i64 %.08, 2
  %10 = or disjoint i64 %9, 3
  %11 = getelementptr inbounds nuw i8, ptr %5, i64 %10
  %12 = load i8, ptr %11, align 1, !tbaa !18
  %.not6 = icmp eq i8 %12, -1
  br i1 %.not6, label %6, label %._crit_edge

._crit_edge:                                      ; preds = %8, %6, %1
  %.05 = phi i32 [ 0, %1 ], [ 0, %6 ], [ 1, %8 ]
  ret i32 %.05
}